(dp1
S'output'
p2
S'<type \'exceptions.RuntimeError\'> Failure to connect, tried 5 times:\nTraceback (most recent call last):\n  File "/home/amogh/projects/web2py/gluon/dal.py", line 7348, in __init__\n    self._adapter = ADAPTERS[self._dbname](**kwargs)\n  File "/home/amogh/projects/web2py/gluon/dal.py", line 2499, in __init__\n    if do_connect: self.reconnect()\n  File "/home/amogh/projects/web2py/gluon/dal.py", line 592, in reconnect\n    self.connection = f()\n  File "/home/amogh/projects/web2py/gluon/dal.py", line 2497, in connector\n    return self.driver.connect(**driver_args)\n  File "/home/amogh/projects/web2py/gluon/contrib/pymysql/__init__.py", line 93, in Connect\n    return Connection(*args, **kwargs)\n  File "/home/amogh/projects/web2py/gluon/contrib/pymysql/connections.py", line 575, in __init__\n    self._connect()\n  File "/home/amogh/projects/web2py/gluon/contrib/pymysql/connections.py", line 743, in _connect\n    raise OperationalError(2003, "Can\'t connect to MySQL server on %r (%s)" % (self.host, e.args[0]))\nOperationalError: (2003, "Can\'t connect to MySQL server on \'localhost\' (111)")\n'
p3
sS'layer'
p4
S'/home/amogh/projects/web2py/applications/iitgminiUID/models/iitgUid.py'
p5
sS'code'
p6
S"dbUid = DAL('mysql://root:root@localhost/iitgUidW2P', migrate=False)\n\ndbUid.define_table('allResidents', \n    Field('id', 'id'),                         # (`id` int(11) NOT NULL AUTO_INCREMENT,)\n    Field('uid', 'integer', notnull=True),                   # randomINT  (`uid` int(15) NOT NULL COMMENT 'randomINT',)\n    Field('name', 'string', notnull=True),                   # (`name` varchar(255) NOT NULL,)\n    Field('gender', 'string', notnull=True,requires=IS_IN_SET(['Male','Female']), default=''),                 # (`gender` enum('male','female') NOT NULL,)\n    Field('type', 'string', notnull=True,requires=IS_IN_SET(['Student','Faculty','Staff','Other'])),                   # (`type` enum('stud','fac','staff','other') NOT NULL,)\n    Field('emergencyPh', 'string', notnull=True),            # (`emergencyPh` varchar(15) NOT NULL,)\n    Field('photo', 'upload', notnull=True, autodelete=True, uploadfolder='uploads'),                    # 1 mb max size  (`photo` longblob NOT NULL COMMENT '1 mb max size',)\n    Field('dob', 'date', notnull=True),                      # (`dob` date NOT NULL,)\n    Field('fbLink', 'string', notnull=False),                 # (`fbLink` varchar(255) DEFAULT NULL,)\n    Field('personalPh', 'string', notnull=False),             # (`personalPh` varchar(15) DEFAULT NULL,)\n    Field('privilegeNum', 'blob', notnull=True),             # (`privilegeNum` binary(60) NOT NULL,)\n    Field('interestedIn', 'text', notnull=True),             # (`interestedIn` text NOT NULL,)\n    Field('bloodGroup', 'string', requires = IS_IN_SET(['AB+','AB-','O-','O+','A+','A-','B+','B-']), default=''),             # (`bloodGroup` enum('AB+','AB-','O-','O+','A+','A-','B+','B-','other') NOT NULL,)\n    )\n\ndbUid.define_table('faculty', \n    Field('id', 'id'),                         # (`id` int(11) NOT NULL AUTO_INCREMENT,)\n    Field('uid', 'integer', notnull=True),                   # (`uid` int(15) NOT NULL,)\n    Field('webmailId', 'string', notnull=True),              # (`webmailId` varchar(100) NOT NULL,)\n    Field('dept', 'string', notnull=True),                   # (`dept` varchar(100) NOT NULL,)\n    Field('post', 'string', notnull=True),                   # (`post` enum('assistant prof','associate prof','prof') NOT NULL,)\n    Field('homepageLink', 'string'),           # (`homepageLink` varchar(100) DEFAULT NULL,)\n    Field('officePh', 'integer', notnull=True),              # (`officePh` int(10) NOT NULL,)\n    Field('blockNo', 'string', notnull=True),                # (`blockNo` varchar(10) NOT NULL,)\n    Field('houseNo', 'string', notnull=True),                # (`houseNo` varchar(10) NOT NULL,)\n    )\n\ndbUid.define_table('loginDetails', \n    Field('id', 'id'),                         # (`id` int(11) NOT NULL AUTO_INCREMENT,)\n    Field('uid', 'integer', notnull=True),                   # (`uid` int(15) NOT NULL,)\n    Field('password', 'string', notnull=True),               # (`password` varchar(255) NOT NULL,)\n    )\n\ndbUid.define_table('post', \n    Field('id', 'id'),                         # for mapping table of privileges  (`id` int(6) NOT NULL AUTO_INCREMENT COMMENT 'for mapping table of privileges',)\n    Field('postName', 'string', notnull=True),               # (`postName` varchar(100) NOT NULL,)\n    Field('webmailID', 'string'),              # (`webmailID` varchar(100) DEFAULT NULL,)\n    Field('holderUid', 'integer', notnull=True),             # (`holderUid` int(15) DEFAULT NULL,)\n    Field('postPrivilege', 'blob', notnull=True),            # (`postPrivilege` binary(60) NOT NULL,)\n    Field('section', 'string', notnull=True),                # (`section` varchar(100) NOT NULL,)\n    )\n\ndbUid.define_table('relationship', \n    Field('id', 'id'),                         # (`id` int(11) NOT NULL AUTO_INCREMENT,)\n    Field('uid', 'integer', notnull=True),                   # (`uid` int(15) NOT NULL,)\n    Field('relatedtoUid', 'integer', notnull=True),          # (`relatedtoUid` int(15) NOT NULL,)\n    Field('relname', 'string', notnull=True),                # (`relname` varchar(100) NOT NULL,)\n    Field('relnameInverse', 'string', notnull=True),         # (`relnameInverse` varchar(100) NOT NULL,)\n    )\n\ndbUid.define_table('staff', \n    Field('id', 'id'),                         # (`id` int(11) NOT NULL AUTO_INCREMENT,)\n    Field('uid', 'integer', notnull=True),                   # (`uid` int(15) NOT NULL,)\n    Field('webmailId', 'string', notnull=True),              # (`webmailId` varchar(100) NOT NULL,)\n    Field('address', 'string', notnull=True),                # (`address` varchar(1000) NOT NULL,)\n    Field('post', 'string', notnull=True),                   # (`post` varchar(100) NOT NULL,)\n    Field('section', 'string', notnull=True),                # (`section` varchar(100) NOT NULL,)\n    )\n\ndbUid.define_table('student', \n    Field('id', 'id'),                         # (`id` int(11) NOT NULL AUTO_INCREMENT,)\n    Field('uid', 'integer', notnull=True),                   # (`uid` int(15) NOT NULL,)\n    Field('webmailId', 'string', notnull=True),              # (`webmailId` varchar(100) NOT NULL,)\n    Field('hostel', 'string', notnull=True),                 # (`hostel` varchar(32) NOT NULL,)\n    Field('roomNo', 'string', notnull=True),                 # (`roomNo` varchar(10) NOT NULL,)\n    Field('rollNo', 'string', notnull=True),                 # (`rollNo` varchar(14) NOT NULL,)\n    )\n\ndbUid.define_table('vehicle', \n    Field('id', 'id'),                         # (`id` int(11) NOT NULL AUTO_INCREMENT,)\n    Field('regNo', 'string', notnull=True),                  # (`regNo` varchar(15) NOT NULL,)\n    Field('type', 'string', notnull=True),                   # (`type` varchar(100) NOT NULL,)\n    Field('owneruid', 'integer', notnull=True),              # (`owneruid` int(15) NOT NULL,)\n    Field('instiRegNo', 'string', notnull=True),             # (`instiRegNo` varchar(15) NOT NULL,)\n    )\n\ncrud2=Crud(dbUid)\ncrud2.messages.submit_button = 'Save changes'\ncrud2.messages.record_updated = 'Record updated'\n\n\ndbUid.allResidents.uid.requires = IS_NOT_IN_DB(dbUid, dbUid.allResidents.uid)\ndbUid.student.webmailId.requires = IS_NOT_IN_DB(dbUid, dbUid.student.webmailId)\ndbUid.faculty.webmailId.requires = IS_NOT_IN_DB(dbUid, dbUid.faculty.webmailId)\ndbUid.staff.webmailId.requires = IS_NOT_IN_DB(dbUid, dbUid.staff.webmailId)\ndbUid.student.rollNo.requires = IS_NOT_IN_DB(dbUid, dbUid.student.rollNo)\ndbUid.student.webmailId.requires = [IS_EMAIL(error_message=auth.messages.invalid_email),IS_NOT_IN_DB(db, 'auth_user.email')]\n"
p7
sS'snapshot'
p8
(dp9
S'exception'
p10
(dp11
S'__hash__'
p12
S"<method-wrapper '__hash__' of exceptions.RuntimeError object>"
p13
sS'__setattr__'
p14
S"<method-wrapper '__setattr__' of exceptions.RuntimeError object>"
p15
sS'__reduce_ex__'
p16
S'<built-in method __reduce_ex__ of exceptions.RuntimeError object>'
p17
sS'__getslice__'
p18
S"<method-wrapper '__getslice__' of exceptions.RuntimeError object>"
p19
sS'__getitem__'
p20
S"<method-wrapper '__getitem__' of exceptions.RuntimeError object>"
p21
sS'__setstate__'
p22
S'<built-in method __setstate__ of exceptions.RuntimeError object>'
p23
sS'args'
p24
S'(\'Failure to connect, tried 5 times:\\nTraceback (mo...t connect to MySQL server on \\\'localhost\\\' (111)")\\n\',)'
p25
sS'__reduce__'
p26
S'<built-in method __reduce__ of exceptions.RuntimeError object>'
p27
sS'__str__'
p28
S"<method-wrapper '__str__' of exceptions.RuntimeError object>"
p29
sS'__format__'
p30
S'<built-in method __format__ of exceptions.RuntimeError object>'
p31
sS'__getattribute__'
p32
S"<method-wrapper '__getattribute__' of exceptions.RuntimeError object>"
p33
sS'__class__'
p34
S"<type 'exceptions.RuntimeError'>"
p35
sS'__unicode__'
p36
S'<built-in method __unicode__ of exceptions.RuntimeError object>'
p37
sS'__delattr__'
p38
S"<method-wrapper '__delattr__' of exceptions.RuntimeError object>"
p39
sS'__subclasshook__'
p40
S'<built-in method __subclasshook__ of type object>'
p41
sS'__repr__'
p42
S"<method-wrapper '__repr__' of exceptions.RuntimeError object>"
p43
sS'__dict__'
p44
S'{}'
p45
sS'__sizeof__'
p46
S'<built-in method __sizeof__ of exceptions.RuntimeError object>'
p47
sS'__doc__'
p48
S"'Unspecified run-time error.'"
p49
sS'__init__'
p50
S"<method-wrapper '__init__' of exceptions.RuntimeError object>"
p51
sS'__new__'
p52
S'<built-in method __new__ of type object>'
p53
ssS'evalue'
p54
S'Failure to connect, tried 5 times:\nTraceback (most recent call last):\n  File "/home/amogh/projects/web2py/gluon/dal.py", line 7348, in __init__\n    self._adapter = ADAPTERS[self._dbname](**kwargs)\n  File "/home/amogh/projects/web2py/gluon/dal.py", line 2499, in __init__\n    if do_connect: self.reconnect()\n  File "/home/amogh/projects/web2py/gluon/dal.py", line 592, in reconnect\n    self.connection = f()\n  File "/home/amogh/projects/web2py/gluon/dal.py", line 2497, in connector\n    return self.driver.connect(**driver_args)\n  File "/home/amogh/projects/web2py/gluon/contrib/pymysql/__init__.py", line 93, in Connect\n    return Connection(*args, **kwargs)\n  File "/home/amogh/projects/web2py/gluon/contrib/pymysql/connections.py", line 575, in __init__\n    self._connect()\n  File "/home/amogh/projects/web2py/gluon/contrib/pymysql/connections.py", line 743, in _connect\n    raise OperationalError(2003, "Can\'t connect to MySQL server on %r (%s)" % (self.host, e.args[0]))\nOperationalError: (2003, "Can\'t connect to MySQL server on \'localhost\' (111)")\n'
p55
sS'request'
p56
cgluon.html
XML_unpickle
p57
(S's=U\x00\x00<div><table><tr><td style="font-weight:bold;vertical-align:top">ajax</td><td valign="top">:</td><td><div>False</div></td></tr><tr><td style="font-weight:bold;vertical-align:top">application</td><td valign="top">:</td><td><div>iitgminiUID</div></td></tr><tr><td style="font-weight:bold;vertical-align:top">args</td><td valign="top">:</td><td><div><table></table></div></td></tr><tr><td style="font-weight:bold;vertical-align:top">body</td><td valign="top">:</td><td><div>&lt;cStringIO.StringO object at 0x7f739412b458&gt;</div></td></tr><tr><td style="font-weight:bold;vertical-align:top">cid</td><td valign="top">:</td><td><div>None</div></td></tr><tr><td style="font-weight:bold;vertical-align:top">client</td><td valign="top">:</td><td><div>127.0.0.1</div></td></tr><tr><td style="font-weight:bold;vertical-align:top">controller</td><td valign="top">:</td><td><div>default</div></td></tr><tr><td style="font-weight:bold;vertical-align:top">cookies</td><td valign="top">:</td><td><div><table><tr><td style="font-weight:bold;vertical-align:top">session_id_admin</td><td valign="top">:</td><td><div>127.0.0.1-97253d90-34c4-4c52-9699-36dede18e505<table><tr><td style="font-weight:bold;vertical-align:top">comment</td><td valign="top">:</td><td><div></div></td></tr><tr><td style="font-weight:bold;vertical-align:top">domain</td><td valign="top">:</td><td><div></div></td></tr><tr><td style="font-weight:bold;vertical-align:top">expires</td><td valign="top">:</td><td><div></div></td></tr><tr><td style="font-weight:bold;vertical-align:top">httponly</td><td valign="top">:</td><td><div></div></td></tr><tr><td style="font-weight:bold;vertical-align:top">max-age</td><td valign="top">:</td><td><div></div></td></tr><tr><td style="font-weight:bold;vertical-align:top">path</td><td valign="top">:</td><td><div></div></td></tr><tr><td style="font-weight:bold;vertical-align:top">secure</td><td valign="top">:</td><td><div></div></td></tr><tr><td style="font-weight:bold;vertical-align:top">version</td><td valign="top">:</td><td><div></div></td></tr></table></div></td></tr><tr><td style="font-weight:bold;vertical-align:top">session_id_iitguidproject</td><td valign="top">:</td><td><div>127.0.0.1-bab88a98-a2d9-4af8-b8bd-22b67fda5bf0<table><tr><td style="font-weight:bold;vertical-align:top">comment</td><td valign="top">:</td><td><div></div></td></tr><tr><td style="font-weight:bold;vertical-align:top">domain</td><td valign="top">:</td><td><div></div></td></tr><tr><td style="font-weight:bold;vertical-align:top">expires</td><td valign="top">:</td><td><div></div></td></tr><tr><td style="font-weight:bold;vertical-align:top">httponly</td><td valign="top">:</td><td><div></div></td></tr><tr><td style="font-weight:bold;vertical-align:top">max-age</td><td valign="top">:</td><td><div></div></td></tr><tr><td style="font-weight:bold;vertical-align:top">path</td><td valign="top">:</td><td><div></div></td></tr><tr><td style="font-weight:bold;vertical-align:top">secure</td><td valign="top">:</td><td><div></div></td></tr><tr><td style="font-weight:bold;vertical-align:top">version</td><td valign="top">:</td><td><div></div></td></tr></table></div></td></tr><tr><td style="font-weight:bold;vertical-align:top">session_id_welcome</td><td valign="top">:</td><td><div>127.0.0.1-a672ef27-2e5a-4cad-af9d-8f10a97ed295<table><tr><td style="font-weight:bold;vertical-align:top">comment</td><td valign="top">:</td><td><div></div></td></tr><tr><td style="font-weight:bold;vertical-align:top">domain</td><td valign="top">:</td><td><div></div></td></tr><tr><td style="font-weight:bold;vertical-align:top">expires</td><td valign="top">:</td><td><div></div></td></tr><tr><td style="font-weight:bold;vertical-align:top">httponly</td><td valign="top">:</td><td><div></div></td></tr><tr><td style="font-weight:bold;vertical-align:top">max-age</td><td valign="top">:</td><td><div></div></td></tr><tr><td style="font-weight:bold;vertical-align:top">path</td><td valign="top">:</td><td><div></div></td></tr><tr><td style="font-weight:bold;vertical-align:top">secure</td><td valign="top">:</td><td><div></div></td></tr><tr><td style="font-weight:bold;vertical-align:top">version</td><td valign="top">:</td><td><div></div></td></tr></table></div></td></tr></table></div></td></tr><tr><td style="font-weight:bold;vertical-align:top">env</td><td valign="top">:</td><td><div><table><tr><td style="font-weight:bold;vertical-align:top">app_folders</td><td valign="top">:</td><td><div>set([&#x27;/home/amogh/projects/web2py/applications/admin/&#x27;, &#x27;/home/amogh/projects/web2py/applications/welcome/&#x27;, &#x27;/home/amogh/projects/web2py/applications/iitgminiUID/&#x27;])</div></td></tr><tr><td style="font-weight:bold;vertical-align:top">applications_parent</td><td valign="top">:</td><td><div>/home/amogh/projects/web2py</div></td></tr><tr><td style="font-weight:bold;vertical-align:top">cmd_args</td><td valign="top">:</td><td><div><table></table></div></td></tr><tr><td style="font-weight:bold;vertical-align:top">cmd_options</td><td valign="top">:</td><td><div>&lt;Values at 0x363c560: {&#x27;verbose&#x27;: False, &#x27;ip&#x27;: &#x27;127.0.0.1&#x27;, &#x27;with_scheduler&#x27;: False, &#x27;ips&#x27;: [], &#x27;shutdown_timeout&#x27;: 5, &#x27;taskbar&#x27;: False, &#x27;port&#x27;: 8000, &#x27;maxthreads&#x27;: None, &#x27;softcron&#x27;: False, &#x27;server_name&#x27;: &#x27;amogh-lab&#x27;, &#x27;bpython&#x27;: False, &#x27;nogui&#x27;: False, &#x27;pid_filename&#x27;: &#x27;httpserver.pid&#x27;, &#x27;extcron&#x27;: False, &#x27;runcron&#x27;: False, &#x27;run_system_tests&#x27;: False, &#x27;test&#x27;: None, &#x27;folder&#x27;: &#x27;/home/amogh/projects/web2py&#x27;, &#x27;config&#x27;: &#x27;&#x27;, &#x27;minthreads&#x27;: None, &#x27;winservice&#x27;: &#x27;&#x27;, &#x27;shell&#x27;: None, &#x27;run&#x27;: &#x27;&#x27;, &#x27;log_filename&#x27;: &#x27;httpserver.log&#x27;, &#x27;debuglevel&#x27;: 30, &#x27;args&#x27;: [&#x27;&#x27;], &#x27;socket_timeout&#x27;: 5, &#x27;ssl_ca_certificate&#x27;: None, &#x27;scheduler&#x27;: None, &#x27;profiler_filename&#x27;: None, &#x27;ssl_private_key&#x27;: &#x27;&#x27;, &#x27;scheduler_groups&#x27;: None, &#x27;password&#x27;: &#x27;&lt;ask&gt;&#x27;, &#x27;request_queue_size&#x27;: 5, &#x27;ssl_certificate&#x27;: &#x27;&#x27;, &#x27;cronjob&#x27;: False, &#x27;numthreads&#x27;: None, &#x27;quiet&#x27;: False, &#x27;interfaces&#x27;: None, &#x27;import_models&#x27;: False, &#x27;timeout&#x27;: 10, &#x27;plain&#x27;: False, &#x27;nobanner&#x27;: False}&gt;</div></td></tr><tr><td style="font-weight:bold;vertical-align:top">db_sessions</td><td valign="top">:</td><td><div>set([])</div></td></tr><tr><td style="font-weight:bold;vertical-align:top">debugging</td><td valign="top">:</td><td><div>False</div></td></tr><tr><td style="font-weight:bold;vertical-align:top">gluon_parent</td><td valign="top">:</td><td><div>/home/amogh/projects/web2py</div></td></tr><tr><td style="font-weight:bold;vertical-align:top">http_accept</td><td valign="top">:</td><td><div>text/html,application/xhtml+xml,application/xml;q=0.9,*/*;q=0.8</div></td></tr><tr><td style="font-weight:bold;vertical-align:top">http_accept_charset</td><td valign="top">:</td><td><div>ISO-8859-1,utf-8;q=0.7,*;q=0.3</div></td></tr><tr><td style="font-weight:bold;vertical-align:top">http_accept_encoding</td><td valign="top">:</td><td><div>gzip,deflate,sdch</div></td></tr><tr><td style="font-weight:bold;vertical-align:top">http_accept_language</td><td valign="top">:</td><td><div>en-US,en;q=0.8</div></td></tr><tr><td style="font-weight:bold;vertical-align:top">http_connection</td><td valign="top">:</td><td><div>keep-alive</div></td></tr><tr><td style="font-weight:bold;vertical-align:top">http_cookie</td><td valign="top">:</td><td><div>session_id_iitguidproject=127.0.0.1-bab88a98-a2d9-4af8-b8bd-22b67fda5bf0; session_id_welcome=127.0.0.1-a672ef27-2e5a-4cad-af9d-8f10a97ed295; session_id_admin=127.0.0.1-97253d90-34c4-4c52-9699-36dede18e505</div></td></tr><tr><td style="font-weight:bold;vertical-align:top">http_host</td><td valign="top">:</td><td><div>localhost:8000</div></td></tr><tr><td style="font-weight:bold;vertical-align:top">http_referer</td><td valign="top">:</td><td><div>http://localhost:8000/admin/default/design/iitgminiUID</div></td></tr><tr><td style="font-weight:bold;vertical-align:top">http_user_agent</td><td valign="top">:</td><td><div>Mozilla/5.0 (X11; Linux x86_64) AppleWebKit/537.31 (KHTML, like Gecko) Chrome/26.0.1410.43 Safari/537.31</div></td></tr><tr><td style="font-weight:bold;vertical-align:top">is_jython</td><td valign="top">:</td><td><div>False</div></td></tr><tr><td style="font-weight:bold;vertical-align:top">is_pypy</td><td valign="top">:</td><td><div>False</div></td></tr><tr><td style="font-weight:bold;vertical-align:top">local_hosts</td><td valign="top">:</td><td><div><table><tr><td><div>127.0.1.1</div></td></tr><tr><td><div>::1</div></td></tr><tr><td><div>amogh-lab</div></td></tr><tr><td><div>::ffff:127.0.0.1</div></td></tr><tr><td><div>127.0.0.1</div></td></tr></table></div></td></tr><tr><td style="font-weight:bold;vertical-align:top">path_info</td><td valign="top">:</td><td><div>/iitgminiUID/default/index</div></td></tr><tr><td style="font-weight:bold;vertical-align:top">query_string</td><td valign="top">:</td><td><div></div></td></tr><tr><td style="font-weight:bold;vertical-align:top">remote_addr</td><td valign="top">:</td><td><div>127.0.0.1</div></td></tr><tr><td style="font-weight:bold;vertical-align:top">remote_port</td><td valign="top">:</td><td><div>52510</div></td></tr><tr><td style="font-weight:bold;vertical-align:top">request_method</td><td valign="top">:</td><td><div>GET</div></td></tr><tr><td style="font-weight:bold;vertical-align:top">request_uri</td><td valign="top">:</td><td><div>/iitgminiUID/default/index</div></td></tr><tr><td style="font-weight:bold;vertical-align:top">script_name</td><td valign="top">:</td><td><div></div></td></tr><tr><td style="font-weight:bold;vertical-align:top">server_name</td><td valign="top">:</td><td><div>amogh-lab</div></td></tr><tr><td style="font-weight:bold;vertical-align:top">server_port</td><td valign="top">:</td><td><div>8000</div></td></tr><tr><td style="font-weight:bold;vertical-align:top">server_protocol</td><td valign="top">:</td><td><div>HTTP/1.1</div></td></tr><tr><td style="font-weight:bold;vertical-align:top">server_software</td><td valign="top">:</td><td><div>Rocket 1.2.6</div></td></tr><tr><td style="font-weight:bold;vertical-align:top">web2py_path</td><td valign="top">:</td><td><div>/home/amogh/projects/web2py</div></td></tr><tr><td style="font-weight:bold;vertical-align:top">web2py_version</td><td valign="top">:</td><td><div>2.4.6-stable+timestamp.2013.04.06.17.37.38</div></td></tr><tr><td style="font-weight:bold;vertical-align:top">wsgi_errors</td><td valign="top">:</td><td><div>&lt;open file &#x27;&lt;stderr&gt;&#x27;, mode &#x27;w&#x27; at 0x7f73cd7ce270&gt;</div></td></tr><tr><td style="font-weight:bold;vertical-align:top">wsgi_file_wrapper</td><td valign="top">:</td><td><div>&lt;class wsgiref.util.FileWrapper at 0x3eb7e20&gt;</div></td></tr><tr><td style="font-weight:bold;vertical-align:top">wsgi_input</td><td valign="top">:</td><td><div>&lt;socket._fileobject object at 0x7f73a424edd0&gt;</div></td></tr><tr><td style="font-weight:bold;vertical-align:top">wsgi_multiprocess</td><td valign="top">:</td><td><div>False</div></td></tr><tr><td style="font-weight:bold;vertical-align:top">wsgi_multithread</td><td valign="top">:</td><td><div>True</div></td></tr><tr><td style="font-weight:bold;vertical-align:top">wsgi_run_once</td><td valign="top">:</td><td><div>False</div></td></tr><tr><td style="font-weight:bold;vertical-align:top">wsgi_url_scheme</td><td valign="top">:</td><td><div>http</div></td></tr><tr><td style="font-weight:bold;vertical-align:top">wsgi_version</td><td valign="top">:</td><td><div><table><tr><td><div>1</div></td></tr><tr><td><div>0</div></td></tr></table></div></td></tr></table></div></td></tr><tr><td style="font-weight:bold;vertical-align:top">extension</td><td valign="top">:</td><td><div>html</div></td></tr><tr><td style="font-weight:bold;vertical-align:top">folder</td><td valign="top">:</td><td><div>/home/amogh/projects/web2py/applications/iitgminiUID/</div></td></tr><tr><td style="font-weight:bold;vertical-align:top">function</td><td valign="top">:</td><td><div>index</div></td></tr><tr><td style="font-weight:bold;vertical-align:top">get_vars</td><td valign="top">:</td><td><div><table></table></div></td></tr><tr><td style="font-weight:bold;vertical-align:top">global_settings</td><td valign="top">:</td><td><div><table><tr><td style="font-weight:bold;vertical-align:top">app_folders</td><td valign="top">:</td><td><div>set([&#x27;/home/amogh/projects/web2py/applications/admin/&#x27;, &#x27;/home/amogh/projects/web2py/applications/welcome/&#x27;, &#x27;/home/amogh/projects/web2py/applications/iitgminiUID/&#x27;])</div></td></tr><tr><td style="font-weight:bold;vertical-align:top">applications_parent</td><td valign="top">:</td><td><div>/home/amogh/projects/web2py</div></td></tr><tr><td style="font-weight:bold;vertical-align:top">cmd_args</td><td valign="top">:</td><td><div><table></table></div></td></tr><tr><td style="font-weight:bold;vertical-align:top">cmd_options</td><td valign="top">:</td><td><div>&lt;Values at 0x363c560: {&#x27;verbose&#x27;: False, &#x27;ip&#x27;: &#x27;127.0.0.1&#x27;, &#x27;with_scheduler&#x27;: False, &#x27;ips&#x27;: [], &#x27;shutdown_timeout&#x27;: 5, &#x27;taskbar&#x27;: False, &#x27;port&#x27;: 8000, &#x27;maxthreads&#x27;: None, &#x27;softcron&#x27;: False, &#x27;server_name&#x27;: &#x27;amogh-lab&#x27;, &#x27;bpython&#x27;: False, &#x27;nogui&#x27;: False, &#x27;pid_filename&#x27;: &#x27;httpserver.pid&#x27;, &#x27;extcron&#x27;: False, &#x27;runcron&#x27;: False, &#x27;run_system_tests&#x27;: False, &#x27;test&#x27;: None, &#x27;folder&#x27;: &#x27;/home/amogh/projects/web2py&#x27;, &#x27;config&#x27;: &#x27;&#x27;, &#x27;minthreads&#x27;: None, &#x27;winservice&#x27;: &#x27;&#x27;, &#x27;shell&#x27;: None, &#x27;run&#x27;: &#x27;&#x27;, &#x27;log_filename&#x27;: &#x27;httpserver.log&#x27;, &#x27;debuglevel&#x27;: 30, &#x27;args&#x27;: [&#x27;&#x27;], &#x27;socket_timeout&#x27;: 5, &#x27;ssl_ca_certificate&#x27;: None, &#x27;scheduler&#x27;: None, &#x27;profiler_filename&#x27;: None, &#x27;ssl_private_key&#x27;: &#x27;&#x27;, &#x27;scheduler_groups&#x27;: None, &#x27;password&#x27;: &#x27;&lt;ask&gt;&#x27;, &#x27;request_queue_size&#x27;: 5, &#x27;ssl_certificate&#x27;: &#x27;&#x27;, &#x27;cronjob&#x27;: False, &#x27;numthreads&#x27;: None, &#x27;quiet&#x27;: False, &#x27;interfaces&#x27;: None, &#x27;import_models&#x27;: False, &#x27;timeout&#x27;: 10, &#x27;plain&#x27;: False, &#x27;nobanner&#x27;: False}&gt;</div></td></tr><tr><td style="font-weight:bold;vertical-align:top">db_sessions</td><td valign="top">:</td><td><div>set([])</div></td></tr><tr><td style="font-weight:bold;vertical-align:top">debugging</td><td valign="top">:</td><td><div>False</div></td></tr><tr><td style="font-weight:bold;vertical-align:top">gluon_parent</td><td valign="top">:</td><td><div>/home/amogh/projects/web2py</div></td></tr><tr><td style="font-weight:bold;vertical-align:top">is_jython</td><td valign="top">:</td><td><div>False</div></td></tr><tr><td style="font-weight:bold;vertical-align:top">is_pypy</td><td valign="top">:</td><td><div>False</div></td></tr><tr><td style="font-weight:bold;vertical-align:top">local_hosts</td><td valign="top">:</td><td><div><table><tr><td><div>127.0.1.1</div></td></tr><tr><td><div>::1</div></td></tr><tr><td><div>amogh-lab</div></td></tr><tr><td><div>::ffff:127.0.0.1</div></td></tr><tr><td><div>127.0.0.1</div></td></tr></table></div></td></tr><tr><td style="font-weight:bold;vertical-align:top">web2py_version</td><td valign="top">:</td><td><div>2.4.6-stable+timestamp.2013.04.06.17.37.38</div></td></tr></table></div></td></tr><tr><td style="font-weight:bold;vertical-align:top">is_https</td><td valign="top">:</td><td><div>False</div></td></tr><tr><td style="font-weight:bold;vertical-align:top">is_local</td><td valign="top">:</td><td><div>True</div></td></tr><tr><td style="font-weight:bold;vertical-align:top">is_restful</td><td valign="top">:</td><td><div>False</div></td></tr><tr><td style="font-weight:bold;vertical-align:top">now</td><td valign="top">:</td><td><div>datetime.datetime(2013, 4, 7, 10, 44, 11, 453141)</div></td></tr><tr><td style="font-weight:bold;vertical-align:top">post_vars</td><td valign="top">:</td><td><div><table></table></div></td></tr><tr><td style="font-weight:bold;vertical-align:top">raw_args</td><td valign="top">:</td><td><div></div></td></tr><tr><td style="font-weight:bold;vertical-align:top">raw_extension</td><td valign="top">:</td><td><div>None</div></td></tr><tr><td style="font-weight:bold;vertical-align:top">url</td><td valign="top">:</td><td><div>/iitgminiUID/default/index</div></td></tr><tr><td style="font-weight:bold;vertical-align:top">utcnow</td><td valign="top">:</td><td><div>datetime.datetime(2013, 4, 7, 5, 14, 11, 453169)</div></td></tr><tr><td style="font-weight:bold;vertical-align:top">uuid</td><td valign="top">:</td><td><div>iitgminiUID/127.0.0.1.2013-04-07.10-44-11.4b415a0c-07d6-4af8-a909-a46277b3bd54</div></td></tr><tr><td style="font-weight:bold;vertical-align:top">vars</td><td valign="top">:</td><td><div><table></table></div></td></tr><tr><td style="font-weight:bold;vertical-align:top">wsgi</td><td valign="top">:</td><td><div><table><tr><td style="font-weight:bold;vertical-align:top">environ</td><td valign="top">:</td><td><div><table><tr><td style="font-weight:bold;vertical-align:top">HTTP_ACCEPT</td><td valign="top">:</td><td><div>text/html,application/xhtml+xml,application/xml;q=0.9,*/*;q=0.8</div></td></tr><tr><td style="font-weight:bold;vertical-align:top">HTTP_ACCEPT_CHARSET</td><td valign="top">:</td><td><div>ISO-8859-1,utf-8;q=0.7,*;q=0.3</div></td></tr><tr><td style="font-weight:bold;vertical-align:top">HTTP_ACCEPT_ENCODING</td><td valign="top">:</td><td><div>gzip,deflate,sdch</div></td></tr><tr><td style="font-weight:bold;vertical-align:top">HTTP_ACCEPT_LANGUAGE</td><td valign="top">:</td><td><div>en-US,en;q=0.8</div></td></tr><tr><td style="font-weight:bold;vertical-align:top">HTTP_CONNECTION</td><td valign="top">:</td><td><div>keep-alive</div></td></tr><tr><td style="font-weight:bold;vertical-align:top">HTTP_COOKIE</td><td valign="top">:</td><td><div>session_id_iitguidproject=127.0.0.1-bab88a98-a2d9-4af8-b8bd-22b67fda5bf0; session_id_welcome=127.0.0.1-a672ef27-2e5a-4cad-af9d-8f10a97ed295; session_id_admin=127.0.0.1-97253d90-34c4-4c52-9699-36dede18e505</div></td></tr><tr><td style="font-weight:bold;vertical-align:top">HTTP_HOST</td><td valign="top">:</td><td><div>localhost:8000</div></td></tr><tr><td style="font-weight:bold;vertical-align:top">HTTP_REFERER</td><td valign="top">:</td><td><div>http://localhost:8000/admin/default/design/iitgminiUID</div></td></tr><tr><td style="font-weight:bold;vertical-align:top">HTTP_USER_AGENT</td><td valign="top">:</td><td><div>Mozilla/5.0 (X11; Linux x86_64) AppleWebKit/537.31 (KHTML, like Gecko) Chrome/26.0.1410.43 Safari/537.31</div></td></tr><tr><td style="font-weight:bold;vertical-align:top">PATH_INFO</td><td valign="top">:</td><td><div>/iitgminiUID/default/index</div></td></tr><tr><td style="font-weight:bold;vertical-align:top">QUERY_STRING</td><td valign="top">:</td><td><div></div></td></tr><tr><td style="font-weight:bold;vertical-align:top">REMOTE_ADDR</td><td valign="top">:</td><td><div>127.0.0.1</div></td></tr><tr><td style="font-weight:bold;vertical-align:top">REMOTE_PORT</td><td valign="top">:</td><td><div>52510</div></td></tr><tr><td style="font-weight:bold;vertical-align:top">REQUEST_METHOD</td><td valign="top">:</td><td><div>GET</div></td></tr><tr><td style="font-weight:bold;vertical-align:top">REQUEST_URI</td><td valign="top">:</td><td><div>/iitgminiUID/default/index</div></td></tr><tr><td style="font-weight:bold;vertical-align:top">SCRIPT_NAME</td><td valign="top">:</td><td><div></div></td></tr><tr><td style="font-weight:bold;vertical-align:top">SERVER_NAME</td><td valign="top">:</td><td><div>amogh-lab</div></td></tr><tr><td style="font-weight:bold;vertical-align:top">SERVER_PORT</td><td valign="top">:</td><td><div>8000</div></td></tr><tr><td style="font-weight:bold;vertical-align:top">SERVER_PROTOCOL</td><td valign="top">:</td><td><div>HTTP/1.1</div></td></tr><tr><td style="font-weight:bold;vertical-align:top">SERVER_SOFTWARE</td><td valign="top">:</td><td><div>Rocket 1.2.6</div></td></tr><tr><td style="font-weight:bold;vertical-align:top">wsgi.errors</td><td valign="top">:</td><td><div>&lt;open file &#x27;&lt;stderr&gt;&#x27;, mode &#x27;w&#x27; at 0x7f73cd7ce270&gt;</div></td></tr><tr><td style="font-weight:bold;vertical-align:top">wsgi.file_wrapper</td><td valign="top">:</td><td><div>&lt;class wsgiref.util.FileWrapper at 0x3eb7e20&gt;</div></td></tr><tr><td style="font-weight:bold;vertical-align:top">wsgi.input</td><td valign="top">:</td><td><div>&lt;cStringIO.StringO object at 0x7f739412b458&gt;</div></td></tr><tr><td style="font-weight:bold;vertical-align:top">wsgi.multiprocess</td><td valign="top">:</td><td><div>False</div></td></tr><tr><td style="font-weight:bold;vertical-align:top">wsgi.multithread</td><td valign="top">:</td><td><div>True</div></td></tr><tr><td style="font-weight:bold;vertical-align:top">wsgi.run_once</td><td valign="top">:</td><td><div>False</div></td></tr><tr><td style="font-weight:bold;vertical-align:top">wsgi.url_scheme</td><td valign="top">:</td><td><div>http</div></td></tr><tr><td style="font-weight:bold;vertical-align:top">wsgi.version</td><td valign="top">:</td><td><div>1</div></td></tr></table></div></td></tr></table></div></td></tr></table></div>'
tRp58
sS'frames'
p59
(lp60
(dp61
S'file'
p62
S'/home/amogh/projects/web2py/gluon/restricted.py'
p63
sS'dump'
p64
(dp65
S'environment'
p66
S"{'A': <class 'gluon.html.A'>, 'ANY_OF': <class 'gluon.validators.ANY_OF'>, 'Auth': <class 'gluon.tools.Auth'>, 'B': <class 'gluon.html.B'>, 'BEAUTIFY': <class 'gluon.html.BEAUTIFY'>, 'BODY': <class 'gluon.html.BODY'>, 'BR': <class 'gluon.html.BR'>, 'BUTTON': <class 'gluon.html.BUTTON'>, 'CAT': <class 'gluon.html.CAT'>, 'CENTER': <class 'gluon.html.CENTER'>, ...}"
p67
sS'ccode'
p68
S'<code object <module> at 0x363a4b0, file "/home/...lications/iitgminiUID/models/iitgUid.py", line 1>'
p69
ssS'lnum'
p70
I212
sS'lines'
p71
(dp72
I207
S'    try:'
p73
sI208
S'        if isinstance(code, types.CodeType):'
p74
sI209
S'            ccode = code'
p75
sI210
S'        else:'
p76
sI211
S'            ccode = compile2(code, layer)'
p77
sI212
S'        exec ccode in environment'
p78
sI213
S'    except HTTP:'
p79
sI214
S'        raise'
p80
sI215
S'    except RestrictedError:'
p81
sI216
S'        # do not encapsulate (obfuscate) the original RestrictedError'
p82
ssS'call'
p83
S'(code="dbUid = DAL(\'mysql://root:root@localhost/iitgUid...alid_email),IS_NOT_IN_DB(db, \'auth_user.email\')]\\n", environment={\'A\': <class \'gluon.html.A\'>, \'ANY_OF\': <class \'gluon.validators.ANY_OF\'>, \'Auth\': <class \'gluon.tools.Auth\'>, \'B\': <class \'gluon.html.B\'>, \'BEAUTIFY\': <class \'gluon.html.BEAUTIFY\'>, \'BODY\': <class \'gluon.html.BODY\'>, \'BR\': <class \'gluon.html.BR\'>, \'BUTTON\': <class \'gluon.html.BUTTON\'>, \'CAT\': <class \'gluon.html.CAT\'>, \'CENTER\': <class \'gluon.html.CENTER\'>, ...}, layer=\'/home/amogh/projects/web2py/applications/iitgminiUID/models/iitgUid.py\')'
p84
sS'func'
p85
S'restricted'
p86
sa(dp87
g62
S'/home/amogh/projects/web2py/applications/iitgminiUID/models/iitgUid.py'
p88
sg64
(dp89
S'DAL'
p90
S"<class 'gluon.dal.DAL'>"
p91
sS'migrate'
p92
S'undefined'
p93
sS'dbUid'
p94
g93
sS'builtinFalse'
p95
S'False'
p96
ssg70
I1
sg71
(dp97
I2
S''
sI3
S"dbUid.define_table('allResidents',"
p98
sI4
S"    Field('id', 'id'),                         # (`id` int(11) NOT NULL AUTO_INCREMENT,)"
p99
sI5
S"    Field('uid', 'integer', notnull=True),                   # randomINT  (`uid` int(15) NOT NULL COMMENT 'randomINT',)"
p100
sI6
S"    Field('name', 'string', notnull=True),                   # (`name` varchar(255) NOT NULL,)"
p101
sI7
S"    Field('gender', 'string', notnull=True,requires=IS_IN_SET(['Male','Female']), default=''),                 # (`gender` enum('male','female') NOT NULL,)"
p102
sI8
S"    Field('type', 'string', notnull=True,requires=IS_IN_SET(['Student','Faculty','Staff','Other'])),                   # (`type` enum('stud','fac','staff','other') NOT NULL,)"
p103
sI9
S"    Field('emergencyPh', 'string', notnull=True),            # (`emergencyPh` varchar(15) NOT NULL,)"
p104
sI10
S"    Field('photo', 'upload', notnull=True, autodelete=True, uploadfolder='uploads'),                    # 1 mb max size  (`photo` longblob NOT NULL COMMENT '1 mb max size',)"
p105
sI11
S"    Field('dob', 'date', notnull=True),                      # (`dob` date NOT NULL,)"
p106
ssg83
S'()'
p107
sg85
S'<module>'
p108
sa(dp109
g62
S'/home/amogh/projects/web2py/gluon/dal.py'
p110
sg64
(dp111
S'tb'
p112
S'\'Traceback (most recent call last):\\n  File "/home...t connect to MySQL server on \\\'localhost\\\' (111)")\\n\''
p113
sS'attempts'
p114
S'5'
sS'builtinRuntimeError'
p115
S"<type 'exceptions.RuntimeError'>"
p116
ssg70
I7368
sg71
(dp117
I7363
S'                if connected:'
p118
sI7364
S'                    break'
p119
sI7365
S'                else:'
p120
sI7366
S'                    time.sleep(1)'
p121
sI7367
S'            if not connected:'
p122
sI7368
S'                raise RuntimeError("Failure to connect, tried %d times:\\n%s" % (attempts, tb))'
p123
sI7369
S'        else:'
p124
sI7370
S'            self._adapter = BaseAdapter(db=self,pool_size=0,'
p125
sI7371
S"                                        uri='None',folder=folder,"
p126
sI7372
S'                                        db_codec=db_codec, after_connection=after_connection)'
p127
ssg83
S'(self=<DAL uri="mysql://root:******@localhost/iitgUidW2P">, uri=\'mysql://root:root@localhost/iitgUidW2P\', pool_size=0, folder=None, db_codec=\'UTF-8\', check_reserved=None, migrate=False, fake_migrate=False, migrate_enabled=True, fake_migrate_all=False, decode_credentials=False, driver_args=None, adapter_args=None, attempts=5, auto_import=False, bigint_id=False, debug=False, lazy_tables=False, db_uid=None, do_connect=True, after_connection=None)'
p128
sg85
g50
sasS'pyver'
p129
S'Python 2.7.3: /usr/bin/python (prefix: /usr)'
p130
sS'session'
p131
g57
(S's\x1a\x00\x00\x00<div><table></table></div>'
tRp132
sS'etype'
p133
S"<type 'exceptions.RuntimeError'>"
p134
sS'date'
p135
S'Sun Apr  7 10:44:16 2013'
p136
sS'response'
p137
g57
(S'sZ\x10\x00\x00<div><table><tr><td style="font-weight:bold;vertical-align:top">body</td><td valign="top">:</td><td><div>&lt;cStringIO.StringO object at 0x7f73a4a56378&gt;</div></td></tr><tr><td style="font-weight:bold;vertical-align:top">cookies</td><td valign="top">:</td><td><div><table><tr><td style="font-weight:bold;vertical-align:top">session_id_iitgminiuid</td><td valign="top">:</td><td><div>127.0.0.1-07c3c753-9ee6-43b2-867e-c648bb47a435<table><tr><td style="font-weight:bold;vertical-align:top">comment</td><td valign="top">:</td><td><div></div></td></tr><tr><td style="font-weight:bold;vertical-align:top">domain</td><td valign="top">:</td><td><div></div></td></tr><tr><td style="font-weight:bold;vertical-align:top">expires</td><td valign="top">:</td><td><div></div></td></tr><tr><td style="font-weight:bold;vertical-align:top">httponly</td><td valign="top">:</td><td><div></div></td></tr><tr><td style="font-weight:bold;vertical-align:top">max-age</td><td valign="top">:</td><td><div></div></td></tr><tr><td style="font-weight:bold;vertical-align:top">path</td><td valign="top">:</td><td><div>/</div></td></tr><tr><td style="font-weight:bold;vertical-align:top">secure</td><td valign="top">:</td><td><div></div></td></tr><tr><td style="font-weight:bold;vertical-align:top">version</td><td valign="top">:</td><td><div></div></td></tr></table></div></td></tr></table></div></td></tr><tr><td style="font-weight:bold;vertical-align:top">delimiters</td><td valign="top">:</td><td><div><table><tr><td><div>{{</div></td></tr><tr><td><div>}}</div></td></tr></table></div></td></tr><tr><td style="font-weight:bold;vertical-align:top">files</td><td valign="top">:</td><td><div><table></table></div></td></tr><tr><td style="font-weight:bold;vertical-align:top">flash</td><td valign="top">:</td><td><div></div></td></tr><tr><td style="font-weight:bold;vertical-align:top">generic_patterns</td><td valign="top">:</td><td><div><table><tr><td><div>*</div></td></tr></table></div></td></tr><tr><td style="font-weight:bold;vertical-align:top">headers</td><td valign="top">:</td><td><div><table><tr><td style="font-weight:bold;vertical-align:top">X-Powered-By</td><td valign="top">:</td><td><div>web2py</div></td></tr></table></div></td></tr><tr><td style="font-weight:bold;vertical-align:top">menu</td><td valign="top">:</td><td><div><table></table></div></td></tr><tr><td style="font-weight:bold;vertical-align:top">meta</td><td valign="top">:</td><td><div><table></table></div></td></tr><tr><td style="font-weight:bold;vertical-align:top">models_to_run</td><td valign="top">:</td><td><div><table><tr><td><div>^\\w+\\.py$</div></td></tr><tr><td><div>^default/\\w+\\.py$</div></td></tr><tr><td><div>^default/index/\\w+\\.py$</div></td></tr></table></div></td></tr><tr><td style="font-weight:bold;vertical-align:top">postprocessing</td><td valign="top">:</td><td><div><table></table></div></td></tr><tr><td style="font-weight:bold;vertical-align:top">session_cookie_expires</td><td valign="top">:</td><td><div>None</div></td></tr><tr><td style="font-weight:bold;vertical-align:top">session_data_name</td><td valign="top">:</td><td><div>session_data_iitgminiuid</div></td></tr><tr><td style="font-weight:bold;vertical-align:top">session_filename</td><td valign="top">:</td><td><div>/home/amogh/projects/web2py/applications/iitgminiUID/sessions/127.0.0.1-07c3c753-9ee6-43b2-867e-c648bb47a435</div></td></tr><tr><td style="font-weight:bold;vertical-align:top">session_id</td><td valign="top">:</td><td><div>127.0.0.1-07c3c753-9ee6-43b2-867e-c648bb47a435</div></td></tr><tr><td style="font-weight:bold;vertical-align:top">session_id_name</td><td valign="top">:</td><td><div>session_id_iitgminiuid</div></td></tr><tr><td style="font-weight:bold;vertical-align:top">session_new</td><td valign="top">:</td><td><div>True</div></td></tr><tr><td style="font-weight:bold;vertical-align:top">session_storage_type</td><td valign="top">:</td><td><div>file</div></td></tr><tr><td style="font-weight:bold;vertical-align:top">status</td><td valign="top">:</td><td><div>200</div></td></tr><tr><td style="font-weight:bold;vertical-align:top">view</td><td valign="top">:</td><td><div>default/index.html</div></td></tr></table></div>'
tRp138
sS'locals'
p139
(dp140
S'migrate'
p141
g96
sS'do_connect'
p142
S'True'
p143
sS'decode_credentials'
p144
g96
sS'attempts'
p145
S'5'
sS'driver_args'
p146
S'None'
p147
sS'self'
p148
S'<DAL uri="mysql://root:******@localhost/iitgUidW2P">'
p149
sS'auto_import'
p150
g96
sS'migrate_enabled'
p151
g143
sS'check_reserved'
p152
S'None'
p153
sS'bigint_id'
p154
g96
sS'kwargs'
p155
S'{\'adapter_args\': {}, \'after_connection\': None, \'credential_decoder\': <function <lambda>>, \'db\': <DAL uri="mysql://root:******@localhost/iitgUidW2P">, \'db_codec\': \'UTF-8\', \'do_connect\': True, \'driver_args\': {\'charset\': \'utf8\', \'db\': \'iitgUidW2P\', \'host\': \'localhost\', \'passwd\': \'root\', \'port\': 3306, \'user\': \'root\'}, \'folder\': None, \'pool_size\': 0, \'uri\': \'mysql://root:root@localhost/iitgUidW2P\'}'
p156
sS'folder'
p157
S'None'
p158
sS'tb'
p159
S'\'Traceback (most recent call last):\\n  File "/home...t connect to MySQL server on \\\'localhost\\\' (111)")\\n\''
p160
sS'uris'
p161
S"['mysql://root:root@localhost/iitgUidW2P']"
p162
sS'lazy_tables'
p163
g96
sS'db_codec'
p164
S"'UTF-8'"
p165
sS'adapter_args'
p166
S'None'
p167
sS'fake_migrate'
p168
g96
sS'connected'
p169
g96
sS'credential_decoder'
p170
S'<function <lambda>>'
p171
sS'after_connection'
p172
S'None'
p173
sS'fake_migrate_all'
p174
g96
sS'db_uid'
p175
S'None'
p176
sS'items'
p177
S'None'
p178
sS'k'
S'4'
sS'uri'
p179
S"'mysql://root:root@localhost/iitgUidW2P'"
p180
sS'pool_size'
p181
S'0'
sS'error'
p182
S"''"
p183
sS'debug'
p184
g96
sssS'traceback'
p185
S'Traceback (most recent call last):\n  File "/home/amogh/projects/web2py/gluon/restricted.py", line 212, in restricted\n    exec ccode in environment\n  File "/home/amogh/projects/web2py/applications/iitgminiUID/models/iitgUid.py", line 1, in <module>\n    dbUid = DAL(\'mysql://root:root@localhost/iitgUidW2P\', migrate=False)\n  File "/home/amogh/projects/web2py/gluon/dal.py", line 7368, in __init__\n    raise RuntimeError("Failure to connect, tried %d times:\\n%s" % (attempts, tb))\nRuntimeError: Failure to connect, tried 5 times:\nTraceback (most recent call last):\n  File "/home/amogh/projects/web2py/gluon/dal.py", line 7348, in __init__\n    self._adapter = ADAPTERS[self._dbname](**kwargs)\n  File "/home/amogh/projects/web2py/gluon/dal.py", line 2499, in __init__\n    if do_connect: self.reconnect()\n  File "/home/amogh/projects/web2py/gluon/dal.py", line 592, in reconnect\n    self.connection = f()\n  File "/home/amogh/projects/web2py/gluon/dal.py", line 2497, in connector\n    return self.driver.connect(**driver_args)\n  File "/home/amogh/projects/web2py/gluon/contrib/pymysql/__init__.py", line 93, in Connect\n    return Connection(*args, **kwargs)\n  File "/home/amogh/projects/web2py/gluon/contrib/pymysql/connections.py", line 575, in __init__\n    self._connect()\n  File "/home/amogh/projects/web2py/gluon/contrib/pymysql/connections.py", line 743, in _connect\n    raise OperationalError(2003, "Can\'t connect to MySQL server on %r (%s)" % (self.host, e.args[0]))\nOperationalError: (2003, "Can\'t connect to MySQL server on \'localhost\' (111)")\n\n'
p186
s.